EXPORTS
??0CClockSpeedInit@@QAE@XZ
??0CThread@@QAE@XZ
??0CThreadEvent@@QAE@PAX@Z
??0CThreadEvent@@QAE@_N@Z
??0CThreadFullMutex@@QAE@_NPBD@Z
??0CThreadLocalBase@@QAE@XZ
??0CThreadMutex@@QAE@XZ
??0CThreadRWLock@@QAE@XZ
??0CThreadSemaphore@@QAE@JJ@Z
??0CThreadSpinRWLock@@QAE@XZ
??0CThreadSyncObject@@IAE@XZ
??0CVProfNode@@QAE@PBDHPAV0@0H@Z
??0CVProfile@@QAE@XZ
??0CValidatableThread@@QAE@XZ
??0CWorkerThread@@QAE@XZ
??1CThread@@UAE@XZ
??1CThreadEvent@@QAE@XZ
??1CThreadFullMutex@@QAE@XZ
??1CThreadLocalBase@@QAE@XZ
??1CThreadMutex@@QAE@XZ
??1CThreadRWLock@@QAE@XZ
??1CThreadSemaphore@@QAE@XZ
??1CThreadSyncObject@@QAE@XZ
??1CVProfNode@@QAE@XZ
??1CVProfile@@QAE@XZ
??1CValidatableThread@@UAE@XZ
??1CWorkerThread@@UAE@XZ
??4CClockSpeedInit@@QAEAAV0@$$QAV0@@Z
??4CClockSpeedInit@@QAEAAV0@ABV0@@Z
??4CThreadLocalBase@@QAEAAV0@ABV0@@Z
??4CVProfNode@@QAEAAV0@ABV0@@Z
??4CVProfile@@QAEAAV0@ABV0@@Z
??7CThreadSyncObject@@QBE_NXZ
??BCThreadSyncObject@@QAEPAXXZ
??_7CThread@@6B@
??_7CValidatableThread@@6B@
??_7CWorkerThread@@6B@
??_FCThreadEvent@@QAEXXZ
??_FCThreadFullMutex@@QAEXXZ
?AddBudgetGroupName@CVProfile@@IAEHPBDH@Z
?AssertOwnedByCurrentThread@CThreadFullMutex@@QAE_NXZ
?AssertOwnedByCurrentThread@CThreadMutex@@QAE_NXZ
?AssertUseable@CThreadSyncObject@@IAEXXZ
?AssignIf@CThreadSpinRWLock@@AAE_NABULockInfo_t@1@0@Z
?AtRoot@CVProfile@@QBE_NXZ
?BoostPriority@CWorkerThread@@QAEHXZ
?BudgetGroupNameToBudgetGroupID@CVProfile@@QAEHPBD@Z
?BudgetGroupNameToBudgetGroupID@CVProfile@@QAEHPBDH@Z
?BudgetGroupNameToBudgetGroupIDNoCreate@CVProfile@@QAEHPBD@Z
?CalcStackDepth@CThread@@QAEIPAX@Z
?Call@CWorkerThread@@IAEHII_NP6GIHPBQAVCThreadEvent@@HI@ZPAVCFunctor@@@Z
?CallMaster@CWorkerThread@@QAEHII@Z
?CallWorker@CWorkerThread@@QAEHII_NPAVCFunctor@@@Z
?Check@CThreadEvent@@QAE_NXZ
?Cleanup@CThread@@IAEXXZ
?ClearPrevTime@CVProfNode@@QAEXXZ
?ConColorMsg@@YAXABVColor@@PBDZZ
?ConLog@@YAXPBDZZ
?ConMsg@@YAXPBDZZ
?ConWarning@@YAXPBDZZ
?CreateSimpleThread@@YAPAUThreadHandle_t__@@P6AIPAX@Z0PAKI@Z
?DevLog@@YAXPBDZZ
?DevMsg@@YAXPBDZZ
?DevWarning@@YAXPBDZZ
?DisableVTuneGroup@CVProfile@@QAEXXZ
?DumpNodes@CVProfile@@IAEXPAVCVProfNode@@H_N@Z
?EnableVTuneGroup@CVProfile@@QAEXPBD@Z
?EnterScope@CVProfNode@@QAEXXZ
?EnterScope@CVProfile@@QAEXPBDH0_N@Z
?EnterScope@CVProfile@@QAEXPBDH0_NH@Z
?ExitScope@CVProfNode@@QAE_NXZ
?ExitScope@CVProfile@@QAEXXZ
?FindBudgetGroupName@CVProfile@@IAEHPBD@Z
?FindNode@CVProfile@@QAEPAVCVProfNode@@PAV2@PBD@Z
?FindOrCreateCounter@CVProfile@@QAEPA_JPBDW4CounterGroup_t@@@Z
?FreeNodes_R@CVProfile@@IAEXPAVCVProfNode@@@Z
?Get@CThreadLocalBase@@QBEPAXXZ
?GetBudgetGroupColor@CVProfile@@QAEXHAAH000@Z
?GetBudgetGroupFlags@CVProfile@@QBEHH@Z
?GetBudgetGroupID@CVProfNode@@QAEHXZ
?GetBudgetGroupName@CVProfile@@QAEPBDH@Z
?GetCallHandle@CWorkerThread@@QAEAAVCThreadEvent@@XZ
?GetCallParam@CWorkerThread@@QBEIPAPAVCFunctor@@@Z
?GetChild@CVProfNode@@QAEPAV1@XZ
?GetClientData@CVProfNode@@QBEHXZ
?GetCounterGroup@CVProfile@@QBE?AW4CounterGroup_t@@H@Z
?GetCounterName@CVProfile@@QBEPBDH@Z
?GetCounterNameAndValue@CVProfile@@QBEPBDHAA_J@Z
?GetCounterValue@CVProfile@@QBE_JH@Z
?GetCurCalls@CVProfNode@@QAEHXZ
?GetCurTime@CVProfNode@@QAENXZ
?GetCurTimeLessChildren@CVProfNode@@QAENXZ
?GetCurrentCThread@CThread@@SAPAV1@XZ
?GetCurrentNode@CVProfile@@QAEPAVCVProfNode@@XZ
?GetDetailLevel@CVProfile@@QBEHXZ
?GetHandle@CThreadSyncObject@@QBEQAXXZ
?GetL2CacheMisses@CVProfNode@@QAEHXZ
?GetName@CThread@@QAEPBDXZ
?GetName@CVProfNode@@QAEPBDXZ
?GetNumBudgetGroups@CVProfile@@QAEHXZ
?GetNumCounters@CVProfile@@QBEHXZ
?GetParent@CVProfNode@@QAEPAV1@XZ
?GetPeakFrameTime@CVProfile@@QAENXZ
?GetPeakTime@CVProfNode@@QAENXZ
?GetPrevCalls@CVProfNode@@QAEHXZ
?GetPrevL2CacheMissLessChildren@CVProfNode@@QAEHXZ
?GetPrevLoadHitStoreLessChildren@CVProfNode@@QAEHXZ
?GetPrevSibling@CVProfNode@@QAEPAV1@XZ
?GetPrevTime@CVProfNode@@QAENXZ
?GetPrevTimeLessChildren@CVProfNode@@QAENXZ
?GetPriority@CThread@@QBEHXZ
?GetResult@CThread@@QAEHXZ
?GetRoot@CVProfile@@QAEPAVCVProfNode@@XZ
?GetSibling@CVProfNode@@QAEPAV1@XZ
?GetSubNode@CVProfNode@@QAEPAV1@PBDH0@Z
?GetSubNode@CVProfNode@@QAEPAV1@PBDH0H@Z
?GetTargetThreadId@CVProfile@@QAEIXZ
?GetThreadHandle@CThread@@QAEPAXXZ
?GetThreadID@CThread@@IBEQAUThreadHandle_t__@@XZ
?GetThreadId@CThread@@QAEIXZ
?GetThreadProc@CThread@@MAEP6GIPAX@ZXZ
?GetTimeLastFrame@CVProfile@@QAENXZ
?GetTotalCalls@CVProfNode@@QAEHXZ
?GetTotalTime@CVProfNode@@QAENXZ
?GetTotalTimeLessChildren@CVProfNode@@QAENXZ
?GetTotalTimeSampled@CVProfile@@QAENXZ
?GetUniqueNodeID@CVProfNode@@ABEHXZ
?HideBudgetGroup@CVProfile@@QAEXH_N@Z
?HideBudgetGroup@CVProfile@@QAEXPBD_N@Z
?InTargetThread@CVProfile@@QAE_NXZ
?Init@CClockSpeedInit@@SAXXZ
?Init@CThread@@MAE_NXZ
?IsAlive@CThread@@QAE_NXZ
?IsEnabled@CVProfile@@QBE_NXZ
?IsThreadRunning@CThread@@MAE_NXZ
?Join@CThread@@QAE_NI@Z
?Lock@CThreadFastMutex@@ACEXII@Z
?Lock@CThreadFullMutex@@QAEXI@Z
?Lock@CThreadFullMutex@@QAEXXZ
?Lock@CThreadMutex@@QAEXXZ
?Lock@CThreadMutex@@QBEXXZ
?LockForRead@CThreadRWLock@@QAEXXZ
?LockForRead@CThreadRWLock@@QBEXXZ
?LockForRead@CThreadSpinRWLock@@QAEXXZ
?LockForRead@CThreadSpinRWLock@@QBEXXZ
?LockForWrite@CThreadRWLock@@QAEXXZ
?LockForWrite@CThreadRWLock@@QBEXXZ
?LockForWrite@CThreadSpinRWLock@@QAEXXZ
?LockForWrite@CThreadSpinRWLock@@QBEXXZ
?MarkFrame@CVProfNode@@QAEXXZ
?MarkFrame@CVProfile@@QAEXXZ
?NumFramesSampled@CVProfile@@QAEHXZ
?OnExit@CThread@@MAEXXZ
?OutputReport@CVProfile@@QAEXHPBDH@Z
?PMEEnable@CVProfile@@QAEX_N@Z
?PMEInitialized@CVProfile@@QAEX_N@Z
?Pause@CVProfNode@@QAEXXZ
?Pause@CVProfile@@QAEXXZ
?PeekCall@CWorkerThread@@QAE_NPAIPAPAVCFunctor@@@Z
?PopGroup@CVProfile@@QAEXXZ
?PushGroup@CVProfile@@QAEXH@Z
?RegisterNumBudgetGroupsChangedCallBack@CVProfile@@QAEXP6AXXZ@Z
?Release@CThreadFullMutex@@QAE_NXZ
?Release@CThreadSemaphore@@QAE_NJPAJ@Z
?Reply@CWorkerThread@@QAEXI@Z
?Reset@CThreadEvent@@QAE_NXZ
?Reset@CVProfNode@@QAEXXZ
?Reset@CVProfile@@QAEXXZ
?ResetCounters@CVProfile@@QAEXW4CounterGroup_t@@@Z
?ResetPeak@CVProfNode@@QAEXXZ
?ResetPeaks@CVProfile@@QAEXXZ
?Resume@CThread@@QAEIXZ
?Resume@CVProfNode@@QAEXXZ
?Resume@CVProfile@@QAEXXZ
?Set@CThreadEvent@@QAE_NXZ
?Set@CThreadLocalBase@@QAEXPAX@Z
?SetBudgetGroupID@CVProfNode@@QAEXH@Z
?SetClientData@CVProfNode@@QAEXH@Z
?SetCurFrameTime@CVProfNode@@QAEXK@Z
?SetName@CThread@@QAEXPBD@Z
?SetPriority@CThread@@QAE_NH@Z
?SetTargetThreadId@CVProfile@@QAEXI@Z
?SetTrace@CThreadFullMutex@@QAEX_N@Z
?SetTrace@CThreadMutex@@QAEX_N@Z
?SetUniqueNodeID@CVProfNode@@AAEXH@Z
?Sleep@CThread@@SAXI@Z
?SpinLockForWrite@CThreadSpinRWLock@@AAEXI@Z
?Start@CThread@@UAE_NI@Z
?Start@CVProfile@@QAEXXZ
?Stop@CThread@@QAEXH@Z
?Stop@CVProfile@@QAEXXZ
?SumTimes@CVProfile@@IAEXPAVCVProfNode@@H@Z
?SumTimes@CVProfile@@IAEXPBDH@Z
?Suspend@CThread@@QAEIXZ
?Term@CVProfile@@QAEXXZ
?Terminate@CThread@@QAE_NH@Z
?ThreadProc@CThread@@CGIPAX@Z
?TryLock@CThreadMutex@@QAE_NXZ
?TryLock@CThreadMutex@@QBE_NXZ
?TryLockForRead@CThreadSpinRWLock@@QAE_NXZ
?TryLockForRead@CThreadSpinRWLock@@QBE_NXZ
?TryLockForWrite@CThreadSpinRWLock@@AAE_NI@Z
?TryLockForWrite@CThreadSpinRWLock@@QAE_NXZ
?TryLockForWrite@CThreadSpinRWLock@@QBE_NXZ
?Unlock@CThreadFullMutex@@QAEXXZ
?Unlock@CThreadMutex@@QAEXXZ
?Unlock@CThreadMutex@@QBEXXZ
?UnlockRead@CThreadRWLock@@QAEXXZ
?UnlockRead@CThreadRWLock@@QBEXXZ
?UnlockRead@CThreadSpinRWLock@@QAEXXZ
?UnlockRead@CThreadSpinRWLock@@QBEXXZ
?UnlockWrite@CThreadRWLock@@QAEXXZ
?UnlockWrite@CThreadRWLock@@QBEXXZ
?UnlockWrite@CThreadSpinRWLock@@QAEXXZ
?UnlockWrite@CThreadSpinRWLock@@QBEXXZ
?UsePME@CVProfile@@QAE_NXZ
?VTuneGroupEnabled@CVProfile@@IAE_NXZ
?VTuneGroupID@CVProfile@@IAEHXZ
?Wait@CThreadEvent@@QAE_NI@Z
?Wait@CThreadSyncObject@@QAE_NI@Z
?WaitForCall@CWorkerThread@@QAE_NIPAI@Z
?WaitForCall@CWorkerThread@@QAE_NPAI@Z
?WaitForCreateComplete@CThread@@MAE_NPAVCThreadEvent@@@Z
?WaitForRead@CThreadRWLock@@AAEXXZ
?WaitForReply@CWorkerThread@@IAEHIP6GIHPBQAVCThreadEvent@@HI@Z@Z
?WaitForReply@CWorkerThread@@QAEHI@Z
?Yield@CThread@@SAXXZ
?g_bInException@@3_NA
?oldValue@?1??TryLockForWrite@CThreadSpinRWLock@@AAE_NI@Z@4ULockInfo_t@2@B
?s_iCurrentUniqueNodeID@CVProfNode@@0HA
AreAllAssertsDisabled
AssertValidStringPtr
COM_TimestampedLog
CallAssertFailedNotifyFunc
CatchAndWriteMiniDump
CatchAndWriteMiniDumpEx
CatchAndWriteMiniDumpExForVoidPtrFn
CatchAndWriteMiniDumpExReturnsInt
CatchAndWriteMiniDumpForVoidPtrFn
ColorSpewMessage
CommandLine_Tier0
ConColorMsg
ConDColorMsg
ConDLog
ConDMsg
ConDWarning
ConLog
ConMsg
ConWarning
CrackSmokingCompiler
CreateSimpleThread
DLog
DMsg
DWarning
DeclareCurrentThreadIsMainThread
DefaultSpewFunc
DefaultSpewFuncAbortOnAsserts
DevLog
DevMsg
DevWarning
DoNewAssertDialog
ETWBegin
ETWEnd
ETWGetRenderFrameNumber
ETWKeyDown
ETWMark
ETWMark1F
ETWMark1I
ETWMark1S
ETWMark2F
ETWMark2I
ETWMark2S
ETWMark3F
ETWMark3I
ETWMark4F
ETWMark4I
ETWMarkPrintf
ETWMouseDown
ETWMouseMove
ETWMouseUp
ETWMouseWheel
ETWReadPacket
ETWRenderFrameMark
ETWSendPacket
ETWSimFrameMark
ETWThrottled
EnableCrashingOnCrashes
Error
ErrorV
GMOD_SpewBufferEnd
GMOD_SpewBufferFlush
GMOD_SpewBufferStart
GetCPUInformation
GetCPUUsage
GetCurrentDate
GetSpewOutputColor
GetSpewOutputFunc
GetSpewOutputGroup
GetSpewOutputLevel
GetThreadedLoadLibraryFunc
HushAsserts
InitPME
InstallProgressReportHandler
Is64BitOS
IsSpewActive
Log
LogV
MemAllocScratch
MemFreeScratch
MinidumpSetUnhandledExceptionFunction
Msg
MsgV
NetLog
NetMsg
NetWarning
Plat_Alloc
Plat_ApplyHardwareDataBreakpointsToNewThread
Plat_DebugString
Plat_FastVerifyHardwareKey
Plat_FloatTime
Plat_Free
Plat_GetCommandLine
Plat_GetCommandLineA
Plat_GetMemPageSize
Plat_GetPagedPoolInfo
Plat_IsInBenchmarkMode
Plat_IsInDebugSession
Plat_MSTime
Plat_Realloc
Plat_SetAllocErrorFn
Plat_SetBenchmarkMode
Plat_SetHardwareDataBreakpoint
Plat_SimpleLog
Plat_VerifyHardwareKey
Plat_VerifyHardwareKeyDriver
Plat_VerifyHardwareKeyPrompt
Plat_ctime
Plat_gmtime
Plat_localtime
Plat_timegm
ReleaseThreadHandle
ReportProgress
RunTSListTests
RunTSQueueTests
SetAllAssertsDisabled
SetAssertFailedNotifyFunc
SetMiniDumpFunction
SetMinidumpComment
SetMinidumpFilenamePrefix
SetThreadedLoadLibraryFunc
SetupWin32ConsoleIO
ShouldUseNewAssertDialog
ShutdownPME
SpewActivate
SpewOutputFunc
ThreadDetach
ThreadGetCurrentHandle
ThreadGetPriority
ThreadInMainThread
ThreadInterlockedAssignIf64
ThreadInterlockedCompareExchange64
ThreadInterlockedDecrement64
ThreadInterlockedExchange64
ThreadInterlockedExchangeAdd64
ThreadInterlockedIncrement64
ThreadJoin
ThreadSetAffinity
ThreadSetDebugName
ThreadSetPriority
ThreadSleep
ThreadWaitForObjects
VoidFnPtrLookup_Tier0
Warning
WarningV
WriteMiniDump
WriteMiniDumpUsingExceptionInfo
_AssertValidReadPtr
_AssertValidReadWritePtr
_AssertValidWritePtr
_DSpewMessage
_ExitOnFatalAssert
_SpewInfo
_SpewMessage
g_ClockSpeed
g_ClockSpeedMicrosecondsMultiplier
g_ClockSpeedMillisecondsMultiplier
g_ClockSpeedSecondsMultiplier
g_Telemetry
g_VProfCurrentProfile
g_VProfSignalSpike
g_dwClockSpeed
g_pMemAlloc
g_pVCR
vtune
