EXPORTS
??0BasicStatStructFieldDesc@@QEAA@$$QEAV0@@Z
??0BasicStatStructFieldDesc@@QEAA@AEBV0@@Z
??0BasicStatStructFieldDesc@@QEAA@W4BasicStatStructFieldTypes_t@@W4BasicStatStructFieldCombineMethods_t@@@Z
??0CCallStackStorage@@QEAA@AEBV0@@Z
??0CCallStackStorage@@QEAA@P6AHPEAPEAXHH@ZI@Z
??0CPerfStatsData@@QEAA@XZ
??0CStackTop_CopyParentStack@@QEAA@PEBQEAXH@Z
??0CStackTop_ReferenceParentStack@@QEAA@PEBQEAXH@Z
??0CThread@@QEAA@XZ
??0CThreadEvent@@QEAA@PEBD_N1@Z
??0CThreadEvent@@QEAA@_N@Z
??0CThreadFullMutex@@QEAA@_NPEBD@Z
??0CThreadLocalBase@GenericThreadLocals@@QEAA@XZ
??0CThreadMutex@@QEAA@XZ
??0CThreadRWLock@@QEAA@XZ
??0CThreadSemaphore@@QEAA@HH@Z
??0CThreadSpinRWLock@@QEAA@XZ
??0CThreadSyncObject@@IEAA@XZ
??0CVProfNode@@QEAA@PEBDHPEAV0@0H@Z
??0CVProfile@@QEAA@XZ
??0CValidatableThread@@QEAA@XZ
??0CWorkerThread@@QEAA@XZ
??0CallStackStatStructDescFuncs@@QEAA@$$QEAV0@@Z
??0CallStackStatStructDescFuncs@@QEAA@AEBV0@@Z
??0CallStackStatStructDescFuncs@@QEAA@XZ
??1CStackTop_CopyParentStack@@QEAA@XZ
??1CStackTop_ReferenceParentStack@@QEAA@XZ
??1CThread@@UEAA@XZ
??1CThreadEvent@@QEAA@XZ
??1CThreadFullMutex@@QEAA@XZ
??1CThreadLocalBase@GenericThreadLocals@@QEAA@XZ
??1CThreadMutex@@QEAA@XZ
??1CThreadRWLock@@QEAA@XZ
??1CThreadSemaphore@@QEAA@XZ
??1CThreadSyncObject@@QEAA@XZ
??1CVProfNode@@QEAA@XZ
??1CVProfile@@QEAA@XZ
??1CValidatableThread@@UEAA@XZ
??1CWorkerThread@@UEAA@XZ
??4BasicStatStructFieldDesc@@QEAAAEAV0@$$QEAV0@@Z
??4BasicStatStructFieldDesc@@QEAAAEAV0@AEBV0@@Z
??4CCallStackStorage@@QEAAAEAV0@AEBV0@@Z
??4CPerfStatsData@@QEAAAEAV0@$$QEAV0@@Z
??4CPerfStatsData@@QEAAAEAV0@AEBV0@@Z
??4CStackTop_Base@@QEAAAEAV0@$$QEAV0@@Z
??4CStackTop_Base@@QEAAAEAV0@AEBV0@@Z
??4CStackTop_CopyParentStack@@QEAAAEAV0@AEBV0@@Z
??4CStackTop_ReferenceParentStack@@QEAAAEAV0@AEBV0@@Z
??4CThreadLocalBase@GenericThreadLocals@@QEAAAEAV01@AEBV01@@Z
??4CThreadSpinRWLock@@QEAAAEAV0@$$QEAV0@@Z
??4CThreadSpinRWLock@@QEAAAEAV0@AEBV0@@Z
??4CVProfNode@@QEAAAEAV0@AEBV0@@Z
??4CVProfile@@QEAAAEAV0@AEBV0@@Z
??4CallStackStatStructDescFuncs@@QEAAAEAV0@$$QEAV0@@Z
??4CallStackStatStructDescFuncs@@QEAAAEAV0@AEBV0@@Z
??7CThreadSyncObject@@QEBA_NXZ
??BCThreadSyncObject@@QEAAPEAXXZ
??_7BasicStatStructFieldDesc@@6B@
??_7CThread@@6B@
??_7CValidatableThread@@6B@
??_7CWorkerThread@@6B@
??_7CallStackStatStructDescFuncs@@6B@
??_FCCallStackStorage@@QEAAXXZ
??_FCStackTop_ReferenceParentStack@@QEAAXXZ
??_FCThreadEvent@@QEAAXXZ
??_FCThreadFullMutex@@QEAAXXZ
?AddBudgetGroupName@CVProfile@@IEAAHPEBDH@Z
?AssertOwnedByCurrentThread@CThreadFullMutex@@QEAA_NXZ
?AssertOwnedByCurrentThread@CThreadMutex@@QEAA_NXZ
?AssertUseable@CThreadSyncObject@@IEAAXXZ
?AtRoot@CVProfile@@QEBA_NXZ
?BoostPriority@CWorkerThread@@QEAAHXZ
?BudgetGroupNameToBudgetGroupID@CVProfile@@QEAAHPEBD@Z
?BudgetGroupNameToBudgetGroupID@CVProfile@@QEAAHPEBDH@Z
?BudgetGroupNameToBudgetGroupIDNoCreate@CVProfile@@QEAAHPEBD@Z
?CalcStackDepth@CThread@@QEAA_KPEAX@Z
?Call@CWorkerThread@@IEAAHII_NP6AIIPEAPEAVCThreadEvent@@HI@Z@Z
?CallMaster@CWorkerThread@@QEAAHII@Z
?CallWorker@CWorkerThread@@QEAAHII_N@Z
?Check@CThreadEvent@@QEAA_NXZ
?CheckNamedEvent@CThreadEvent@@SA?AW4NamedEventResult_t@@PEBDI@Z
?ClearPrevTime@CVProfNode@@QEAAXXZ
?ConColorMsg@@YAXAEBVColor@@PEBDZZ
?ConMsg@@YAXPEBDZZ
?DescribeField@BasicStatStructFieldDesc@@UEAA_KPEAE_K@Z
?DevMsg@@YAXPEBDZZ
?DevWarning@@YAXPEBDZZ
?DisableVTuneGroup@CVProfile@@QEAAXXZ
?DumpNodes@CVProfile@@IEAAXPEAVCVProfNode@@H_N@Z
?EnableVTuneGroup@CVProfile@@QEAAXPEBD@Z
?EnterScope@CVProfNode@@QEAAXXZ
?EnterScope@CVProfile@@QEAAXPEBDH0_N@Z
?EnterScope@CVProfile@@QEAAXPEBDH0_NH@Z
?ExitScope@CVProfNode@@QEAA_NXZ
?ExitScope@CVProfile@@QEAAXXZ
?FindBudgetGroupName@CVProfile@@IEAAHPEBD@Z
?FindNode@CVProfile@@QEAAPEAVCVProfNode@@PEAV2@PEBD@Z
?FindOrCreateCounter@CVProfile@@QEAAPEAHPEBDW4CounterGroup_t@@@Z
?FreeNodes_R@CVProfile@@IEAAXPEAVCVProfNode@@@Z
?Get@CThreadLocalBase@GenericThreadLocals@@QEBAPEAXXZ
?GetBudgetGroupColor@CVProfile@@QEAAXHAEAH000@Z
?GetBudgetGroupFlags@CVProfile@@QEBAHH@Z
?GetBudgetGroupID@CVProfNode@@QEAAHXZ
?GetBudgetGroupName@CVProfile@@QEAAPEBDH@Z
?GetCallHandle@CWorkerThread@@QEAAAEAVCThreadEvent@@XZ
?GetCallParam@CWorkerThread@@QEBAIXZ
?GetChild@CVProfNode@@QEAAPEAV1@XZ
?GetClientData@CVProfNode@@QEBAHXZ
?GetCounterGroup@CVProfile@@QEBA?AW4CounterGroup_t@@H@Z
?GetCounterName@CVProfile@@QEBAPEBDH@Z
?GetCounterNameAndValue@CVProfile@@QEBAPEBDHAEAH@Z
?GetCounterValue@CVProfile@@QEBAHH@Z
?GetCurCalls@CVProfNode@@QEAAHXZ
?GetCurTime@CVProfNode@@QEAANXZ
?GetCurTimeLessChildren@CVProfNode@@QEAANXZ
?GetCurrentCThread@CThread@@SAPEAV1@XZ
?GetCurrentNode@CVProfile@@QEAAPEAVCVProfNode@@XZ
?GetDetailLevel@CVProfile@@QEBAHXZ
?GetHandle@CThreadSyncObject@@QEBAQEAXXZ
?GetL2CacheMisses@CVProfNode@@QEAAHXZ
?GetName@CThread@@QEAAPEBDXZ
?GetName@CVProfNode@@QEAAPEBDXZ
?GetNumBudgetGroups@CVProfile@@QEAAHXZ
?GetNumCounters@CVProfile@@QEBAHXZ
?GetParent@CVProfNode@@QEAAPEAV1@XZ
?GetPeakFrameTime@CVProfile@@QEAANXZ
?GetPeakTime@CVProfNode@@QEAANXZ
?GetPrevCalls@CVProfNode@@QEAAHXZ
?GetPrevL2CacheMissLessChildren@CVProfNode@@QEAAHXZ
?GetPrevLoadHitStoreLessChildren@CVProfNode@@QEAAHXZ
?GetPrevSibling@CVProfNode@@QEAAPEAV1@XZ
?GetPrevTime@CVProfNode@@QEAANXZ
?GetPrevTimeLessChildren@CVProfNode@@QEAANXZ
?GetPriority@CThread@@QEBAHXZ
?GetResult@CThread@@QEAAHXZ
?GetRoot@CVProfile@@QEAAPEAVCVProfNode@@XZ
?GetSibling@CVProfNode@@QEAAPEAV1@XZ
?GetSubNode@CVProfNode@@QEAAPEAV1@PEBDH0@Z
?GetSubNode@CVProfNode@@QEAAPEAV1@PEBDH0H@Z
?GetTargetThreadId@CVProfile@@QEAAIXZ
?GetThreadHandle@CThread@@IEBAQEAUThreadHandle_t__@@XZ
?GetThreadHandle@CThread@@QEAAPEAUThreadHandle_t__@@XZ
?GetThreadID@CThread@@IEBA?B_KXZ
?GetThreadProc@CThread@@MEAAP6AKPEAX@ZXZ
?GetTimeLastFrame@CVProfile@@QEAANXZ
?GetTotalCalls@CVProfNode@@QEAAHXZ
?GetTotalTime@CVProfNode@@QEAANXZ
?GetTotalTimeLessChildren@CVProfNode@@QEAANXZ
?GetTotalTimeSampled@CVProfile@@QEAANXZ
?GetUniqueNodeID@CVProfNode@@AEBAHXZ
?HideBudgetGroup@CVProfile@@QEAAXH_N@Z
?HideBudgetGroup@CVProfile@@QEAAXPEBD_N@Z
?InTargetThread@CVProfile@@QEAA_NXZ
?Init@CThread@@MEAA_NXZ
?IsAlive@CThread@@QEAA_NXZ
?IsEnabled@CVProfile@@QEBA_NXZ
?IsLockedForRead@CThreadSpinRWLock@@QEAA_NXZ
?IsLockedForWrite@CThreadSpinRWLock@@QEAA_NXZ
?IsOwnedByCurrentThread_DebugOnly@CThreadMutex@@QEAA_NXZ
?IsSuspended@CThread@@QEAA_NXZ
?IsThreadRunning@CThread@@MEAA_NXZ
?Join@CThread@@QEAA_NI@Z
?Lock@CThreadFastMutex@@AECAXII@Z
?Lock@CThreadFullMutex@@QEAAXI@Z
?Lock@CThreadFullMutex@@QEAAXXZ
?Lock@CThreadMutex@@QEAAXXZ
?Lock@CThreadMutex@@QEBAXXZ
?LockForRead@CThreadRWLock@@QEAAXXZ
?LockForRead@CThreadRWLock@@QEBAXXZ
?LockForRead@CThreadSpinRWLock@@QEAAXXZ
?LockForRead@CThreadSpinRWLock@@QEBAXXZ
?LockForWrite@CThreadRWLock@@QEAAXXZ
?LockForWrite@CThreadRWLock@@QEBAXXZ
?LockForWrite@CThreadSpinRWLock@@QEAAXXZ
?LockForWrite@CThreadSpinRWLock@@QEBAXXZ
?LockSilent@CThreadMutex@@QEAAXXZ
?LoggingSystem_Log@@YA?AW4LoggingResponse_t@@HW4LoggingSeverity_t@@VColor@@PEBDZZ
?MarkFrame@CVProfNode@@QEAAXXZ
?MarkFrame@CVProfile@@QEAAXPEBD@Z
?MarkFrame@CVProfile@@QEAAXXZ
?NumFramesSampled@CVProfile@@QEAAHXZ
?OnExit@CThread@@MEAAXXZ
?OutputReport@CVProfile@@QEAAXHPEBDH@Z
?PMEEnable@CVProfile@@QEAAX_N@Z
?PMEInitialized@CVProfile@@QEAAX_N@Z
?Pause@CVProfNode@@QEAAXXZ
?Pause@CVProfile@@QEAAXXZ
?PeekCall@CWorkerThread@@QEAA_NPEAI@Z
?PopGroup@CVProfile@@QEAAXXZ
?PushGroup@CVProfile@@QEAAXH@Z
?RegisterNumBudgetGroupsChangedCallBack@CVProfile@@QEAAXP6AXXZ@Z
?Release@CThreadFullMutex@@QEAA_NXZ
?Release@CThreadSemaphore@@QEAA_NHPEAH@Z
?ReleaseParentStackReferences@CStackTop_ReferenceParentStack@@QEAAXXZ
?Reply@CWorkerThread@@QEAAXI@Z
?Reset@CPerfStatsData@@QEAAXXZ
?Reset@CThreadEvent@@QEAA_NXZ
?Reset@CVProfNode@@QEAAXXZ
?Reset@CVProfile@@QEAAXXZ
?ResetCounters@CVProfile@@QEAAXW4CounterGroup_t@@@Z
?ResetPeak@CVProfNode@@QEAAXXZ
?ResetPeaks@CVProfile@@QEAAXXZ
?Resume@CThread@@QEAAIXZ
?Resume@CVProfNode@@QEAAXXZ
?Resume@CVProfile@@QEAAXXZ
?Set@CThreadEvent@@QEAA_NXZ
?Set@CThreadLocalBase@GenericThreadLocals@@QEAAXPEAX@Z
?SetBudgetGroupID@CVProfNode@@QEAAXH@Z
?SetClientData@CVProfNode@@QEAAXH@Z
?SetCurFrameTime@CVProfNode@@QEAAXK@Z
?SetName@CThread@@QEAAXPEBD@Z
?SetPriority@CThread@@QEAA_NH@Z
?SetTargetThreadId@CVProfile@@QEAAXI@Z
?SetTrace@CThreadFullMutex@@QEAAX_N@Z
?SetTrace@CThreadMutex@@QEAAX_N@Z
?SetUniqueNodeID@CVProfNode@@AEAAXH@Z
?Sleep@CThread@@SAXI@Z
?SpinLockForRead@CThreadSpinRWLock@@QEAAXXZ
?SpinLockForWrite@CThreadSpinRWLock@@QEAAXXZ
?Start@CThread@@UEAA_NIW4ThreadPriorityEnum_t@@@Z
?Start@CVProfile@@QEAAXXZ
?Stop@CThread@@QEAAXH@Z
?Stop@CVProfile@@QEAAXXZ
?SumTimes@CVProfile@@IEAAXPEAVCVProfNode@@H@Z
?SumTimes@CVProfile@@IEAAXPEBDH@Z
?Suspend@CThread@@QEAAIXZ
?Term@CVProfile@@QEAAXXZ
?Terminate@CThread@@QEAA_NH@Z
?ThreadProc@CThread@@KAKPEAX@Z
?ThreadProcRunWithMinidumpHandler@CThread@@KAXPEAX@Z
?Tick@CPerfStatsData@@QEAAXXZ
?TryLock@CThreadMutex@@QEAA_NXZ
?TryLock@CThreadMutex@@QEBA_NXZ
?TryLockForRead@CThreadSpinRWLock@@QEAA_NXZ
?TryLockForRead@CThreadSpinRWLock@@QEBA_NXZ
?TryLockForRead_UnforcedInline@CThreadSpinRWLock@@QEAA_NXZ
?TryLockForWrite@CThreadSpinRWLock@@QEAA_NXZ
?TryLockForWrite@CThreadSpinRWLock@@QEBA_NXZ
?TryLockForWrite_UnforcedInline@CThreadSpinRWLock@@QEAA_NXZ
?Unlock@CThreadFullMutex@@QEAAXXZ
?Unlock@CThreadMutex@@QEAAXXZ
?Unlock@CThreadMutex@@QEBAXXZ
?UnlockRead@CThreadRWLock@@QEAAXXZ
?UnlockRead@CThreadRWLock@@QEBAXXZ
?UnlockRead@CThreadSpinRWLock@@QEAAXXZ
?UnlockRead@CThreadSpinRWLock@@QEBAXXZ
?UnlockSilent@CThreadMutex@@QEAAXXZ
?UnlockWrite@CThreadRWLock@@QEAAXXZ
?UnlockWrite@CThreadRWLock@@QEBAXXZ
?UnlockWrite@CThreadSpinRWLock@@QEAAXXZ
?UnlockWrite@CThreadSpinRWLock@@QEBAXXZ
?UsePME@CVProfile@@QEAA_NXZ
?VTuneGroupEnabled@CVProfile@@IEAA_NXZ
?VTuneGroupID@CVProfile@@IEAAHXZ
?Wait@CThreadEvent@@QEAA_NI@Z
?Wait@CThreadSyncObject@@QEAA_NI@Z
?WaitForCall@CWorkerThread@@QEAA_NIPEAI@Z
?WaitForCall@CWorkerThread@@QEAA_NPEAI@Z
?WaitForCreateComplete@CThread@@MEAA_NPEAVCThreadEvent@@@Z
?WaitForMultiple@CThreadEvent@@SAIHPEAPEAV1@_NI@Z
?WaitForMultiple@CThreadEvent@@SAIHPEAV1@_NI@Z
?WaitForMultiple@CThreadSyncObject@@SAIHPEAPEAV1@_NI@Z
?WaitForMultiple@CThreadSyncObject@@SAIHPEAV1@_NI@Z
?WaitForRead@CThreadRWLock@@AEAAXXZ
?WaitForReply@CWorkerThread@@IEAAHIP6AIIPEAPEAVCThreadEvent@@HI@Z@Z
?WaitForReply@CWorkerThread@@QEAAHI@Z
?Yield@CThread@@SAXXZ
?g_bInException@@3_NA
?g_nThreadID@@3V?$CThreadLocalInt@H@GenericThreadLocals@@A
?s_iCurrentUniqueNodeID@CVProfNode@@0HA
AddMemoryInfoCallback
AllocateThreadID
AppendMiniProfilerToList
AreAllAssertsDisabled
AssertValidWStringPtr
COM_TimestampedLog
CallAssertFailedNotifyFunc
CatchAndWriteMiniDump
CatchAndWriteMiniDumpEx
CatchAndWriteMiniDumpExForVoidPtrFn
CatchAndWriteMiniDumpExReturnsInt
CatchAndWriteMiniDumpForVoidPtrFn
ClearHardwareBreakpoint
CommandLine
ConDMsg
CrackSmokingCompiler
CreateSimpleThread
DeclareCurrentThreadIsMainThread
DecodeBinaryFromString
DevMsg
DevWarning
DoNewAssertDialog
DumpMemoryInfoStats
Dump_AddCallback
Dump_CallFunction
Dump_CallMainFunction
Dump_CallWinMainFunction
Dump_CreateDump
Dump_EnableCrashingOnCrashes
Dump_EnableFullDumps
Dump_RemoveCallback
EnableCrashingOnCrashes
EncodeBinaryToString
Error
Error_SpewCallStack
FreeThreadID
GetCPUFrequencyResults
GetCPUInformation
GetCallStack
GetCallStack_Fast
GetCurrentDate
GetCurrentDayOfTheWeek
GetCurrentDayOfTheYear
GetFileAndLineFromAddress
GetHardwareClockReliably
GetModuleNameFromAddress
GetSymbolNameFromAddress
GetThreadedLoadLibraryFunc
GetVAtom
InitPME
InitWin32ConsoleColorContext
InstallProgressReportHandler
IsAssertDialogDisabled
LOG_GENERAL
LoggingSystem_AddTagToCurrentChannel
LoggingSystem_FindChannel
LoggingSystem_GetChannel
LoggingSystem_GetChannelColor
LoggingSystem_GetChannelCount
LoggingSystem_GetChannelFlags
LoggingSystem_GetFirstChannelID
LoggingSystem_GetNextChannelID
LoggingSystem_HasTag
LoggingSystem_IsChannelEnabled
LoggingSystem_Log
LoggingSystem_LogAssert
LoggingSystem_LogDirect
LoggingSystem_PopLoggingState
LoggingSystem_PushLoggingState
LoggingSystem_RegisterLoggingChannel
LoggingSystem_RegisterLoggingListener
LoggingSystem_ResetCurrentLoggingState
LoggingSystem_SetChannelColor
LoggingSystem_SetChannelFlags
LoggingSystem_SetChannelSpewLevel
LoggingSystem_SetChannelSpewLevelByName
LoggingSystem_SetChannelSpewLevelByTag
LoggingSystem_SetGlobalSpewLevel
LoggingSystem_SetLoggingResponsePolicy
LoggingSystem_UnregisterLoggingListener
MemAllocScratch
MemFreeScratch
MemOutOfMemory
MicroProfilerAddTS
MinidumpSetUnhandledExceptionFunction
Msg
Plat_Alloc
Plat_ConvertToLocalTime
Plat_CreateWindow
Plat_DebugString
Plat_ExitProcess
Plat_ExitProcessWithError
Plat_FastVerifyHardwareKey
Plat_FileExists
Plat_FileIsReadOnly
Plat_FileSize
Plat_FloatTime
Plat_Free
Plat_GetClockStart
Plat_GetCommandLine
Plat_GetCommandLineA
Plat_GetDesktopResolution
Plat_GetEnv
Plat_GetExecutablePath
Plat_GetLocalTime
Plat_GetMemPageSize
Plat_GetModuleFilename
Plat_GetOSVersion
Plat_GetPagedPoolInfo
Plat_GetShellWindow
Plat_GetTime
Plat_GetTimeString
Plat_GetWindowClientSize
Plat_IsDirectory
Plat_IsInBenchmarkMode
Plat_IsInDebugSession
Plat_IsWindowMinimized
Plat_MSTime
Plat_MessageBox
Plat_Realloc
Plat_ScreenToWindowCoords
Plat_SetAllocErrorFn
Plat_SetBenchmarkMode
Plat_SetExitProcessWithErrorCB
Plat_SetWindowPos
Plat_SetWindowTitle
Plat_SimpleLog
Plat_USTime
Plat_VerifyHardwareKey
Plat_VerifyHardwareKeyDriver
Plat_VerifyHardwareKeyPrompt
Plat_WindowToScreenCoords
Plat_chmod
Plat_ctime
Plat_getwd
Plat_localtime
Plat_timegm
Platform_gmtime
PopMiniProfilerTS
PreloadStackInformation
PublishAll
PublishAllMiniProfilers
PushMiniProfilerTS
ReleaseThreadHandle
RemoveMemoryInfoCallback
RemoveMiniProfilerFromList
ReportProgress
RestoreWin32ConsoleColor
RunTSListTests
RunTSQueueTests
SetAllAssertsDisabled
SetAssertDialogDisabled
SetAssertFailedNotifyFunc
SetCPUMonitoringInterval
SetHardwareBreakpoint
SetMiniDumpFunction
SetMinidumpComment
SetMinidumpFilenamePrefix
SetStackTranslationSymbolSearchPath
SetThreadedLoadLibraryFunc
SetWin32ConsoleColor
SetupWin32ConsoleIO
ShouldUseNewAssertDialog
ShutdownPME
StackToolsNotify_LoadedLibrary
ThreadGetCurrentHandle
ThreadGetCurrentId
ThreadGetPriority
ThreadInMainThread
ThreadInterlockedAssignIf
ThreadInterlockedAssignIf128
ThreadInterlockedAssignIf64
ThreadInterlockedAssignPointerIf
ThreadInterlockedCompareExchange
ThreadInterlockedCompareExchange64
ThreadInterlockedCompareExchangePointer
ThreadInterlockedDecrement
ThreadInterlockedExchange
ThreadInterlockedExchange64
ThreadInterlockedExchangeAdd
ThreadInterlockedExchangePointer
ThreadInterlockedIncrement
ThreadJoin
ThreadNanoSleep
ThreadSetAffinity
ThreadSetDebugName
ThreadSetPriority
ThreadSleep
TranslateStackInfo
V_tier0_snprintf
V_tier0_stricmp
V_tier0_strncat
V_tier0_strncpy
V_tier0_vsnprintf
VoidFnPtrLookup_Tier0
Warning
Warning_SpewCallStack
WriteMiniDump
WriteMiniDumpUsingExceptionInfo
_AssertValidReadPtr
_AssertValidReadWritePtr
_AssertValidStringPtr
_AssertValidWritePtr
_CCallStackStatsGatherer_Internal_DumpStatsToFile
_CCallStackStatsGatherer_Write_FieldDescriptions
_Error_AlwaysSpewCallStack_Enable
_Error_AlwaysSpewCallStack_Length
_ExitOnFatalAssert
_Warning_AlwaysSpewCallStack_Enable
_Warning_AlwaysSpewCallStack_Length
g_ClockSpeed
g_ClockSpeedMicrosecondsMultiplier
g_ClockSpeedMillisecondsMultiplier
g_ClockSpeedSecondsMultiplier
g_PerfStats
g_VProfCurrentProfile
g_VProfSignalSpike
g_dwClockSpeed
g_nMiniProfilerFrame
g_pAssertMiniProfilers
g_pGlobalMiniProfilers
g_pLastMiniProfiler
g_pMemAlloc
g_pRootMiniProfiler
vtune
